target datalayout = "e-m:e-p270:32:32-p271:32:32-p272:64:64-i64:64-i128:128-f80:128-n8:16:32:64-S128"
target triple = "x86_64-pc-linux-gnu"

%struct._object = type { %union.anon, ptr }
%union.anon = type { i64 }
%struct.PyVarObject = type { %struct._object, i64 }
%struct.PyASCIIObject = type { %struct._object, i64, i64, %struct.anon.46 }
%struct.anon.46 = type { i16, i16 }
%struct._typeobject = type { %struct.PyVarObject, ptr, i64, i64, ptr, i64, ptr, ptr, ptr, ptr, ptr, ptr, ptr, ptr, ptr, ptr, ptr, ptr, ptr, i64, ptr, ptr, ptr, ptr, i64, ptr, ptr, ptr, ptr, ptr, ptr, ptr, ptr, ptr, i64, ptr, ptr, ptr, ptr, ptr, ptr, ptr, ptr, ptr, ptr, ptr, i32, ptr, ptr, i8, i16 }
%struct.anon = type { i32, i32 }

@PyExc_ValueError = external global ptr, align 8
@_Py_NoneStruct = external global %struct._object, align 8
@.str.54 = private unnamed_addr constant [19 x i8] c"_interpreters.exec\00", align 1
@.str.55 = private unnamed_addr constant [11 x i8] c"argument 2\00", align 1
@PyUnicode_Type = external global %struct._typeobject, align 8
@.str.56 = private unnamed_addr constant [31 x i8] c"%.200s(): bad script text (%s)\00", align 1
@.str.57 = private unnamed_addr constant [10 x i8] c"too short\00", align 1
@interp_run_string.kwlist = internal global [5 x ptr] [ptr @.str.33, ptr @.str.78, ptr @.str.50, ptr @.str.34, ptr null], align 16
@.str.79 = private unnamed_addr constant [32 x i8] c"OU|O$p:_interpreters.run_string\00", align 1
@.str.80 = private unnamed_addr constant [16 x i8] c"run a string in\00", align 1
@.str.81 = private unnamed_addr constant [9 x i8] c"a string\00", align 1

; Function Attrs: inlinehint nounwind uwtable
define internal i64 @PyUnicode_GET_LENGTH(ptr noundef %0) #3 {
  %2 = alloca ptr, align 8
  store ptr %0, ptr %2, align 8, !tbaa !3
  %3 = load ptr, ptr %2, align 8, !tbaa !3
  %4 = getelementptr inbounds nuw %struct.PyASCIIObject, ptr %3, i32 0, i32 1
  %5 = load i64, ptr %4, align 8, !tbaa !206
  ret i64 %5
}

; Function Attrs: alwaysinline nounwind uwtable
define internal void @Py_INCREF(ptr noundef %0) #4 {
  %2 = alloca ptr, align 8
  %3 = alloca i32, align 4
  %4 = alloca i32, align 4
  store ptr %0, ptr %2, align 8, !tbaa !3
  call void @llvm.lifetime.start.p0(i64 4, ptr %3) #8
  %5 = load ptr, ptr %2, align 8, !tbaa !3
  %6 = getelementptr inbounds nuw %struct._object, ptr %5, i32 0, i32 0
  %7 = getelementptr inbounds nuw %struct.anon, ptr %6, i32 0, i32 0
  %8 = load i32, ptr %7, align 8, !tbaa !38
  store i32 %8, ptr %3, align 4, !tbaa !11
  %9 = load i32, ptr %3, align 4, !tbaa !11
  %10 = icmp slt i32 %9, 0
  br i1 %10, label %11, label %12

11:                                               ; preds = %1
  store i32 1, ptr %4, align 4
  br label %18

12:                                               ; preds = %1
  %13 = load i32, ptr %3, align 4, !tbaa !11
  %14 = add i32 %13, 1
  %15 = load ptr, ptr %2, align 8, !tbaa !3
  %16 = getelementptr inbounds nuw %struct._object, ptr %15, i32 0, i32 0
  %17 = getelementptr inbounds nuw %struct.anon, ptr %16, i32 0, i32 0
  store i32 %14, ptr %17, align 8, !tbaa !38
  store i32 0, ptr %4, align 4
  br label %18

18:                                               ; preds = %12, %11
  call void @llvm.lifetime.end.p0(i64 4, ptr %3) #8
  %19 = load i32, ptr %4, align 4
  switch i32 %19, label %21 [
    i32 0, label %20
    i32 1, label %20
  ]

20:                                               ; preds = %18, %18
  ret void

21:                                               ; preds = %18
  unreachable
}

; Function Attrs: alwaysinline nounwind uwtable
define internal i32 @_Py_IsImmortal(ptr noundef %0) #4 {
  %2 = alloca ptr, align 8
  store ptr %0, ptr %2, align 8, !tbaa !3
  %3 = load ptr, ptr %2, align 8, !tbaa !3
  %4 = getelementptr inbounds nuw %struct._object, ptr %3, i32 0, i32 0
  %5 = getelementptr inbounds nuw %struct.anon, ptr %4, i32 0, i32 0
  %6 = load i32, ptr %5, align 8, !tbaa !38
  %7 = icmp slt i32 %6, 0
  %8 = zext i1 %7 to i32
  ret i32 %8
}

; Function Attrs: nounwind uwtable
define internal ptr @check_code_str(ptr noundef %0) #0 {
  %2 = alloca ptr, align 8
  %3 = alloca ptr, align 8
  store ptr %0, ptr %3, align 8, !tbaa !8
  %4 = load ptr, ptr %3, align 8, !tbaa !8
  %5 = call i64 @PyUnicode_GET_LENGTH(ptr noundef %4)
  %6 = icmp eq i64 %5, 0
  br i1 %6, label %7, label %8

7:                                                ; preds = %1
  store ptr @.str.57, ptr %2, align 8
  br label %9

8:                                                ; preds = %1
  store ptr null, ptr %2, align 8
  br label %9

9:                                                ; preds = %8, %7
  %10 = load ptr, ptr %2, align 8
  ret ptr %10
}

; Function Attrs: inlinehint nounwind uwtable
define internal i32 @PyType_HasFeature(ptr noundef %0, i64 noundef %1) #3 {
  %3 = alloca ptr, align 8
  %4 = alloca i64, align 8
  %5 = alloca i64, align 8
  store ptr %0, ptr %3, align 8, !tbaa !39
  store i64 %1, ptr %4, align 8, !tbaa !13
  call void @llvm.lifetime.start.p0(i64 8, ptr %5) #8
  %6 = load ptr, ptr %3, align 8, !tbaa !39
  %7 = getelementptr inbounds nuw %struct._typeobject, ptr %6, i32 0, i32 19
  %8 = load i64, ptr %7, align 8, !tbaa !40
  store i64 %8, ptr %5, align 8, !tbaa !13
  %9 = load i64, ptr %5, align 8, !tbaa !13
  %10 = load i64, ptr %4, align 8, !tbaa !13
  %11 = and i64 %9, %10
  %12 = icmp ne i64 %11, 0
  %13 = zext i1 %12 to i32
  call void @llvm.lifetime.end.p0(i64 8, ptr %5) #8
  ret i32 %13
}

; Function Attrs: inlinehint nounwind uwtable
define internal ptr @_Py_TYPE(ptr noundef %0) #3 {
  %2 = alloca ptr, align 8
  store ptr %0, ptr %2, align 8, !tbaa !3
  %3 = load ptr, ptr %2, align 8, !tbaa !3
  %4 = getelementptr inbounds nuw %struct._object, ptr %3, i32 0, i32 1
  %5 = load ptr, ptr %4, align 8, !tbaa !47
  ret ptr %5
}

; Function Attrs: inlinehint nounwind uwtable
define internal ptr @_Py_NewRef(ptr noundef %0) #3 {
  %2 = alloca ptr, align 8
  store ptr %0, ptr %2, align 8, !tbaa !3
  %3 = load ptr, ptr %2, align 8, !tbaa !3
  call void @Py_INCREF(ptr noundef %3)
  %4 = load ptr, ptr %2, align 8, !tbaa !3
  ret ptr %4
}

; Function Attrs: inlinehint nounwind uwtable
define internal i32 @Py_IS_TYPE(ptr noundef %0, ptr noundef %1) #3 {
  %3 = alloca ptr, align 8
  %4 = alloca ptr, align 8
  store ptr %0, ptr %3, align 8, !tbaa !3
  store ptr %1, ptr %4, align 8, !tbaa !39
  %5 = load ptr, ptr %3, align 8, !tbaa !3
  %6 = call ptr @_Py_TYPE(ptr noundef %5)
  %7 = load ptr, ptr %4, align 8, !tbaa !39
  %8 = icmp eq ptr %6, %7
  %9 = zext i1 %8 to i32
  ret i32 %9
}

; Function Attrs: alwaysinline nounwind uwtable
define internal void @Py_DECREF(ptr noundef %0) #4 {
  %2 = alloca ptr, align 8
  store ptr %0, ptr %2, align 8, !tbaa !3
  %3 = load ptr, ptr %2, align 8, !tbaa !3
  %4 = call i32 @_Py_IsImmortal(ptr noundef %3)
  %5 = icmp ne i32 %4, 0
  br i1 %5, label %6, label %7

6:                                                ; preds = %1
  br label %16

7:                                                ; preds = %1
  %8 = load ptr, ptr %2, align 8, !tbaa !3
  %9 = getelementptr inbounds nuw %struct._object, ptr %8, i32 0, i32 0
  %10 = getelementptr inbounds nuw %struct.anon, ptr %9, i32 0, i32 0
  %11 = load i32, ptr %10, align 8, !tbaa !38
  %12 = add i32 %11, -1
  store i32 %12, ptr %10, align 8, !tbaa !38
  %13 = icmp eq i32 %12, 0
  br i1 %13, label %14, label %16

14:                                               ; preds = %7
  %15 = load ptr, ptr %2, align 8, !tbaa !3
  call void @_Py_Dealloc(ptr noundef %15)
  br label %16

16:                                               ; preds = %6, %14, %7
  ret void
}

; Function Attrs: nounwind uwtable
define internal ptr @convert_script_arg(ptr noundef %0, ptr noundef %1, ptr noundef %2, ptr noundef %3) #0 {
  %5 = alloca ptr, align 8
  %6 = alloca ptr, align 8
  %7 = alloca ptr, align 8
  %8 = alloca ptr, align 8
  %9 = alloca ptr, align 8
  %10 = alloca ptr, align 8
  %11 = alloca i32, align 4
  %12 = alloca ptr, align 8
  store ptr %0, ptr %6, align 8, !tbaa !3
  store ptr %1, ptr %7, align 8, !tbaa !9
  store ptr %2, ptr %8, align 8, !tbaa !9
  store ptr %3, ptr %9, align 8, !tbaa !9
  call void @llvm.lifetime.start.p0(i64 8, ptr %10) #8
  store ptr null, ptr %10, align 8, !tbaa !8
  %13 = load ptr, ptr %6, align 8, !tbaa !3
  %14 = call i32 @Py_IS_TYPE(ptr noundef %13, ptr noundef @PyUnicode_Type)
  %15 = icmp ne i32 %14, 0
  br i1 %15, label %16, label %19

16:                                               ; preds = %4
  %17 = load ptr, ptr %6, align 8, !tbaa !3
  %18 = call ptr @_Py_NewRef(ptr noundef %17)
  store ptr %18, ptr %10, align 8, !tbaa !8
  br label %33

19:                                               ; preds = %4
  %20 = load ptr, ptr %6, align 8, !tbaa !3
  %21 = call ptr @_Py_TYPE(ptr noundef %20)
  %22 = call i32 @PyType_HasFeature(ptr noundef %21, i64 noundef 268435456)
  %23 = icmp ne i32 %22, 0
  br i1 %23, label %24, label %27

24:                                               ; preds = %19
  %25 = load ptr, ptr %6, align 8, !tbaa !3
  %26 = call ptr @_Py_NewRef(ptr noundef %25)
  store ptr %26, ptr %10, align 8, !tbaa !8
  br label %32

27:                                               ; preds = %19
  %28 = load ptr, ptr %7, align 8, !tbaa !9
  %29 = load ptr, ptr %8, align 8, !tbaa !9
  %30 = load ptr, ptr %9, align 8, !tbaa !9
  %31 = load ptr, ptr %6, align 8, !tbaa !3
  call void @_PyArg_BadArgument(ptr noundef %28, ptr noundef %29, ptr noundef %30, ptr noundef %31)
  store ptr null, ptr %5, align 8
  store i32 1, ptr %11, align 4
  br label %47

32:                                               ; preds = %24
  br label %33

33:                                               ; preds = %32, %16
  call void @llvm.lifetime.start.p0(i64 8, ptr %12) #8
  %34 = load ptr, ptr %10, align 8, !tbaa !8
  %35 = call ptr @check_code_str(ptr noundef %34)
  store ptr %35, ptr %12, align 8, !tbaa !9
  %36 = load ptr, ptr %12, align 8, !tbaa !9
  %37 = icmp ne ptr %36, null
  br i1 %37, label %38, label %44

38:                                               ; preds = %33
  %39 = load ptr, ptr %10, align 8, !tbaa !8
  call void @Py_DECREF(ptr noundef %39)
  %40 = load ptr, ptr @PyExc_ValueError, align 8, !tbaa !3
  %41 = load ptr, ptr %7, align 8, !tbaa !9
  %42 = load ptr, ptr %12, align 8, !tbaa !9
  %43 = call ptr (ptr, ptr, ...) @PyErr_Format(ptr noundef %40, ptr noundef @.str.56, ptr noundef %41, ptr noundef %42)
  store ptr null, ptr %5, align 8
  store i32 1, ptr %11, align 4
  br label %46

44:                                               ; preds = %33
  %45 = load ptr, ptr %10, align 8, !tbaa !8
  store ptr %45, ptr %5, align 8
  store i32 1, ptr %11, align 4
  br label %46

46:                                               ; preds = %44, %38
  call void @llvm.lifetime.end.p0(i64 8, ptr %12) #8
  br label %47

47:                                               ; preds = %46, %27
  call void @llvm.lifetime.end.p0(i64 8, ptr %10) #8
  %48 = load ptr, ptr %5, align 8
  ret ptr %48
}

; Function Attrs: nounwind uwtable
define internal ptr @interp_run_string(ptr noundef %0, ptr noundef %1, ptr noundef %2) #0 {
  %4 = alloca ptr, align 8
  %5 = alloca ptr, align 8
  %6 = alloca ptr, align 8
  %7 = alloca ptr, align 8
  %8 = alloca ptr, align 8
  %9 = alloca ptr, align 8
  %10 = alloca ptr, align 8
  %11 = alloca i32, align 4
  %12 = alloca i32, align 4
  %13 = alloca i32, align 4
  %14 = alloca ptr, align 8
  %15 = alloca ptr, align 8
  %16 = alloca i32, align 4
  store ptr %0, ptr %5, align 8, !tbaa !3
  store ptr %1, ptr %6, align 8, !tbaa !3
  store ptr %2, ptr %7, align 8, !tbaa !3
  call void @llvm.lifetime.start.p0(i64 8, ptr %8) #8
  call void @llvm.lifetime.start.p0(i64 8, ptr %9) #8
  call void @llvm.lifetime.start.p0(i64 8, ptr %10) #8
  store ptr null, ptr %10, align 8, !tbaa !3
  call void @llvm.lifetime.start.p0(i64 4, ptr %11) #8
  store i32 0, ptr %11, align 4, !tbaa !11
  %17 = load ptr, ptr %6, align 8, !tbaa !3
  %18 = load ptr, ptr %7, align 8, !tbaa !3
  %19 = call i32 (ptr, ptr, ptr, ptr, ...) @PyArg_ParseTupleAndKeywords(ptr noundef %17, ptr noundef %18, ptr noundef @.str.79, ptr noundef @interp_run_string.kwlist, ptr noundef %8, ptr noundef %9, ptr noundef %10, ptr noundef %11)
  %20 = icmp ne i32 %19, 0
  br i1 %20, label %22, label %21

21:                                               ; preds = %3
  store ptr null, ptr %4, align 8
  store i32 1, ptr %12, align 4
  br label %50

22:                                               ; preds = %3
  call void @llvm.lifetime.start.p0(i64 4, ptr %13) #8
  store i32 1, ptr %13, align 4, !tbaa !11
  call void @llvm.lifetime.start.p0(i64 8, ptr %14) #8
  %23 = load ptr, ptr %8, align 8, !tbaa !3
  %24 = load i32, ptr %11, align 4, !tbaa !11
  %25 = load i32, ptr %13, align 4, !tbaa !11
  %26 = call ptr @resolve_interp(ptr noundef %23, i32 noundef %24, i32 noundef %25, ptr noundef @.str.80)
  store ptr %26, ptr %14, align 8, !tbaa !15
  %27 = load ptr, ptr %14, align 8, !tbaa !15
  %28 = icmp eq ptr %27, null
  br i1 %28, label %29, label %30

29:                                               ; preds = %22
  store ptr null, ptr %4, align 8
  store i32 1, ptr %12, align 4
  br label %49

30:                                               ; preds = %22
  %31 = load ptr, ptr %9, align 8, !tbaa !3
  %32 = call ptr @convert_script_arg(ptr noundef %31, ptr noundef @.str.54, ptr noundef @.str.55, ptr noundef @.str.81)
  store ptr %32, ptr %9, align 8, !tbaa !3
  %33 = load ptr, ptr %9, align 8, !tbaa !3
  %34 = icmp eq ptr %33, null
  br i1 %34, label %35, label %36

35:                                               ; preds = %30
  store ptr null, ptr %4, align 8
  store i32 1, ptr %12, align 4
  br label %49

36:                                               ; preds = %30
  call void @llvm.lifetime.start.p0(i64 8, ptr %15) #8
  store ptr null, ptr %15, align 8, !tbaa !3
  call void @llvm.lifetime.start.p0(i64 4, ptr %16) #8
  %37 = load ptr, ptr %5, align 8, !tbaa !3
  %38 = load ptr, ptr %14, align 8, !tbaa !15
  %39 = load ptr, ptr %9, align 8, !tbaa !3
  %40 = load ptr, ptr %10, align 8, !tbaa !3
  %41 = call i32 @_interp_exec(ptr noundef %37, ptr noundef %38, ptr noundef %39, ptr noundef %40, ptr noundef %15)
  store i32 %41, ptr %16, align 4, !tbaa !11
  %42 = load ptr, ptr %9, align 8, !tbaa !3
  call void @Py_DECREF(ptr noundef %42)
  %43 = load i32, ptr %16, align 4, !tbaa !11
  %44 = icmp slt i32 %43, 0
  br i1 %44, label %45, label %47

45:                                               ; preds = %36
  %46 = load ptr, ptr %15, align 8, !tbaa !3
  store ptr %46, ptr %4, align 8
  store i32 1, ptr %12, align 4
  br label %48

47:                                               ; preds = %36
  store ptr @_Py_NoneStruct, ptr %4, align 8
  store i32 1, ptr %12, align 4
  br label %48

48:                                               ; preds = %47, %45
  call void @llvm.lifetime.end.p0(i64 4, ptr %16) #8
  call void @llvm.lifetime.end.p0(i64 8, ptr %15) #8
  br label %49

49:                                               ; preds = %48, %35, %29
  call void @llvm.lifetime.end.p0(i64 8, ptr %14) #8
  call void @llvm.lifetime.end.p0(i64 4, ptr %13) #8
  br label %50

50:                                               ; preds = %49, %21
  call void @llvm.lifetime.end.p0(i64 4, ptr %11) #8
  call void @llvm.lifetime.end.p0(i64 8, ptr %10) #8
  call void @llvm.lifetime.end.p0(i64 8, ptr %9) #8
  call void @llvm.lifetime.end.p0(i64 8, ptr %8) #8
  %51 = load ptr, ptr %4, align 8
  ret ptr %51
}