; Function Attrs: nounwind uwtable
define internal ptr @interp_run_string(ptr readnone captures(none) %0, ptr noundef %1, ptr noundef %2) #0 {
  %4 = alloca ptr, align 8
  %5 = alloca ptr, align 8
  %6 = alloca ptr, align 8
  %7 = alloca i32, align 4
  %8 = alloca ptr, align 8
  call void @llvm.lifetime.start.p0(i64 8, ptr nonnull %4) #7
  call void @llvm.lifetime.start.p0(i64 8, ptr nonnull %5) #7
  call void @llvm.lifetime.start.p0(i64 8, ptr nonnull %6) #7
  store ptr null, ptr %6, align 8, !tbaa !15
  call void @llvm.lifetime.start.p0(i64 4, ptr nonnull %7) #7
  store i32 0, ptr %7, align 4, !tbaa !14
  %9 = call i32 (ptr, ptr, ptr, ptr, ...) @PyArg_ParseTupleAndKeywords(ptr noundef %1, ptr noundef %2, ptr noundef nonnull @.str.79, ptr noundef nonnull @interp_run_string.kwlist, ptr noundef nonnull %4, ptr noundef nonnull %5, ptr noundef nonnull %6, ptr noundef nonnull %7) #7
  %.not = icmp eq i32 %9, 0
  br i1 %.not, label %convert_script_arg.exit.thread, label %10

10:                                               ; preds = %3
  %11 = load ptr, ptr %4, align 8, !tbaa !15
  %12 = load i32, ptr %7, align 4, !tbaa !14
  %13 = call fastcc ptr @resolve_interp(ptr noundef %11, i32 noundef %12, i32 noundef 1, ptr noundef nonnull @.str.80)
  %14 = icmp eq ptr %13, null
  br i1 %14, label %convert_script_arg.exit.thread, label %15

15:                                               ; preds = %10
  %16 = load ptr, ptr %5, align 8, !tbaa !15
  %17 = getelementptr i8, ptr %16, i64 8
  %.val20.i = load ptr, ptr %17, align 8, !tbaa !23
  %.not.i8 = icmp eq ptr %.val20.i, @PyUnicode_Type
  br i1 %.not.i8, label %18, label %21

18:                                               ; preds = %15
  %19 = load i32, ptr %16, align 8, !tbaa !11
  %20 = icmp slt i32 %19, 0
  br i1 %20, label %_Py_NewRef.exit.i, label %_Py_NewRef.exit.sink.split.i

21:                                               ; preds = %15
  %22 = getelementptr i8, ptr %.val20.i, i64 168
  %.val19.i = load i64, ptr %22, align 8, !tbaa !24
  %23 = and i64 %.val19.i, 268435456
  %.not17.i = icmp eq i64 %23, 0
  br i1 %.not17.i, label %27, label %24

24:                                               ; preds = %21
  %25 = load i32, ptr %16, align 8, !tbaa !11
  %26 = icmp slt i32 %25, 0
  br i1 %26, label %_Py_NewRef.exit.i, label %_Py_NewRef.exit.sink.split.i

27:                                               ; preds = %21
  call void @_PyArg_BadArgument(ptr noundef nonnull @.str.54, ptr noundef nonnull @.str.55, ptr noundef nonnull @.str.81, ptr noundef nonnull %16) #7
  br label %convert_script_arg.exit.thread

_Py_NewRef.exit.sink.split.i:                     ; preds = %24, %18
  %.sink2.i = phi i32 [ %19, %18 ], [ %25, %24 ]
  %28 = add nuw i32 %.sink2.i, 1
  store i32 %28, ptr %16, align 8, !tbaa !11
  br label %_Py_NewRef.exit.i

_Py_NewRef.exit.i:                                ; preds = %_Py_NewRef.exit.sink.split.i, %24, %18
  %29 = phi i32 [ %25, %24 ], [ %19, %18 ], [ %28, %_Py_NewRef.exit.sink.split.i ]
  %30 = getelementptr i8, ptr %16, i64 16
  %.015.val.i = load i64, ptr %30, align 8, !tbaa !194
  %.not1.i = icmp eq i64 %.015.val.i, 0
  br i1 %.not1.i, label %31, label %38

31:                                               ; preds = %_Py_NewRef.exit.i
  %.not.i.i = icmp sgt i32 %29, -1
  br i1 %.not.i.i, label %32, label %Py_DECREF.exit.i

32:                                               ; preds = %31
  %33 = add nsw i32 %29, -1
  store i32 %33, ptr %16, align 8, !tbaa !11
  %34 = icmp eq i32 %33, 0
  br i1 %34, label %35, label %Py_DECREF.exit.i

35:                                               ; preds = %32
  call void @_Py_Dealloc(ptr noundef nonnull %16) #7
  br label %Py_DECREF.exit.i

Py_DECREF.exit.i:                                 ; preds = %35, %32, %31
  %36 = load ptr, ptr @PyExc_ValueError, align 8, !tbaa !15
  %37 = call ptr (ptr, ptr, ...) @PyErr_Format(ptr noundef %36, ptr noundef nonnull @.str.56, ptr noundef nonnull @.str.54, ptr noundef nonnull @.str.57) #7
  br label %convert_script_arg.exit.thread

38:                                               ; preds = %_Py_NewRef.exit.i
  store ptr %16, ptr %5, align 8, !tbaa !15
  call void @llvm.lifetime.start.p0(i64 8, ptr nonnull %8) #7
  store ptr null, ptr %8, align 8, !tbaa !15
  %39 = load ptr, ptr %6, align 8, !tbaa !15
  %40 = call fastcc i32 @_interp_exec(ptr noundef %13, ptr noundef nonnull %16, ptr noundef %39, ptr noundef %8)
  %41 = load ptr, ptr %5, align 8, !tbaa !15
  %42 = load i32, ptr %41, align 8, !tbaa !11
  %.not.i = icmp sgt i32 %42, -1
  br i1 %.not.i, label %43, label %Py_DECREF.exit

43:                                               ; preds = %38
  %44 = add nsw i32 %42, -1
  store i32 %44, ptr %41, align 8, !tbaa !11
  %45 = icmp eq i32 %44, 0
  br i1 %45, label %46, label %Py_DECREF.exit

46:                                               ; preds = %43
  call void @_Py_Dealloc(ptr noundef nonnull %41) #7
  br label %Py_DECREF.exit

Py_DECREF.exit:                                   ; preds = %38, %43, %46
  %47 = icmp slt i32 %40, 0
  %48 = load ptr, ptr %8, align 8
  %.2 = select i1 %47, ptr %48, ptr @_Py_NoneStruct
  call void @llvm.lifetime.end.p0(i64 8, ptr nonnull %8) #7
  br label %convert_script_arg.exit.thread

convert_script_arg.exit.thread:                   ; preds = %Py_DECREF.exit.i, %27, %Py_DECREF.exit, %10, %3
  %.0 = phi ptr [ null, %3 ], [ %.2, %Py_DECREF.exit ], [ null, %10 ], [ null, %27 ], [ null, %Py_DECREF.exit.i ]
  call void @llvm.lifetime.end.p0(i64 4, ptr nonnull %7) #7
  call void @llvm.lifetime.end.p0(i64 8, ptr nonnull %6) #7
  call void @llvm.lifetime.end.p0(i64 8, ptr nonnull %5) #7
  call void @llvm.lifetime.end.p0(i64 8, ptr nonnull %4) #7
  ret ptr %.0
}